; Function Attrs: mustprogress nounwind uwtable
define void @_ZNK19OpenColorIO_v2_5dev6Config17getNamedTransformEPKc(ptr dead_on_unwind noalias writable writeonly sret(%"class.std::shared_ptr.84") align 8 captures(none) initializes((0, 16)) %0, ptr noundef nonnull readonly align 8 captures(none) dereferenceable(8) %1, ptr noundef %2) local_unnamed_addr #6 align 2 personality ptr @__gxx_personality_v0 {
  %4 = load ptr, ptr %1, align 8, !tbaa !34
  tail call void @llvm.experimental.noalias.scope.decl(metadata !555)
  %5 = tail call noundef i64 @_ZNK19OpenColorIO_v2_5dev6Config4Impl22getNamedTransformIndexEPKc(ptr noundef nonnull align 8 dereferenceable(1120) %4, ptr noundef %2) #34, !noalias !555
  %6 = getelementptr inbounds nuw i8, ptr %4, i64 736
  %7 = getelementptr inbounds nuw i8, ptr %4, i64 744
  %8 = load ptr, ptr %7, align 8, !tbaa !217, !noalias !555
  %9 = load ptr, ptr %6, align 8, !tbaa !216, !noalias !555
  %10 = ptrtoint ptr %8 to i64
  %11 = ptrtoint ptr %9 to i64
  %12 = sub i64 %10, %11
  %13 = ashr exact i64 %12, 4
  %.not.i = icmp ult i64 %5, %13
  br i1 %.not.i, label %15, label %14

14:                                               ; preds = %3
  tail call void @llvm.memset.p0.i64(ptr noundef nonnull align 8 dereferenceable(16) %0, i8 0, i64 16, i1 false), !alias.scope !555
  br label %_ZNK19OpenColorIO_v2_5dev6Config4Impl17getNamedTransformEPKc.exit

15:                                               ; preds = %3
  %16 = getelementptr inbounds nuw %"class.std::shared_ptr.84", ptr %9, i64 %5
  %17 = load ptr, ptr %16, align 8, !tbaa !254, !noalias !555
  store ptr %17, ptr %0, align 8, !tbaa !254, !alias.scope !555
  %18 = getelementptr inbounds nuw i8, ptr %0, i64 8
  %19 = getelementptr inbounds nuw i8, ptr %16, i64 8
  %20 = load ptr, ptr %19, align 8, !tbaa !11, !noalias !555
  store ptr %20, ptr %18, align 8, !tbaa !11, !alias.scope !555
  %.not.i.i.i.i = icmp eq ptr %20, null
  br i1 %.not.i.i.i.i, label %_ZNK19OpenColorIO_v2_5dev6Config4Impl17getNamedTransformEPKc.exit, label %21

21:                                               ; preds = %15
  %22 = getelementptr inbounds nuw i8, ptr %20, i64 8
  %23 = load i8, ptr @__libc_single_threaded, align 1, !tbaa !19, !noalias !555
  %.not.i.i.i.i.i = icmp eq i8 %23, 0
  br i1 %.not.i.i.i.i.i, label %27, label %24

24:                                               ; preds = %21
  %25 = load i32, ptr %22, align 4, !tbaa !20, !noalias !555
  %26 = add nsw i32 %25, 1
  store i32 %26, ptr %22, align 4, !tbaa !20, !noalias !555
  br label %_ZNK19OpenColorIO_v2_5dev6Config4Impl17getNamedTransformEPKc.exit

27:                                               ; preds = %21
  %28 = atomicrmw volatile add ptr %22, i32 1 acq_rel, align 4, !noalias !555
  br label %_ZNK19OpenColorIO_v2_5dev6Config4Impl17getNamedTransformEPKc.exit

_ZNK19OpenColorIO_v2_5dev6Config4Impl17getNamedTransformEPKc.exit: ; preds = %14, %15, %24, %27
  ret void
}